(lp0
I6
aI6
aI6
aI6
aI6
aI6
aI6
aI6
aI6
aI6
aI6
aI6
aI6
aI6
aI6
aI6
aI6
aI6
aI6
aI6
aI6
aI6
aI6
aI6
aI6
aI6
aI6
aI6
aI6
aI6
aI6
aI6
aI6
aI6
aI6
aI6
aI6
aI6
aI6
aI6
aI6
aI6
aI6
aI6
aI6
aI6
aI6
aI6
aI6
aI6
aI6
aI6
aI6
aI6
aI6
aI6
aI6
aI6
aI6
aI6
aI6
aI6
aI6
aI6
aI6
aI6
aI6
aI6
aI6
aI6
aI6
aI6
aI6
aI6
aI6
aI6
aI6
aI6
aI6
aI6
aI6
aI6
aI6
aI6
aI6
aI6
aI6
aI6
aI6
aI6
aI6
aI6
aI6
aI6
aI6
aI6
aI6
aI6
aI6
aI6
aI6
aI6
aI6
aI6
aI6
aI6
aI6
aI6
aI6
aI6
aI6
aI6
aI6
aI6
aI6
aI6
aI6
aI6
aI6
aI6
aI6
aI6
aI6
aI6
aI6
aI6
aI6
aI6
aI6
aI6
aI6
aI6
aI6
aI6
aI6
aI6
aI6
aI6
aI6
aI6
aI6
aI6
aI6
aI6
aI6
aI6
aI6
aI6
aI6
aI6
aI6
aI6
aI6
aI6
aI6
aI6
aI6
aI6
aI6
aI6
aI6
aI6
aI6
aI6
aI6
aI6
aI6
aI6
aI6
aI6
aI6
aI6
aI6
aI6
aI6
aI6
aI6
aI6
aI6
aI6
aI6
aI6
aI6
aI6
aI6
aI6
aI6
aI6
aI6
aI6
aI6
aI6
aI6
aI6
aI6
aI6
aI6
aI6
aI6
aI6
aI6
aI6
aI6
aI6
aI6
aI6
aI6
aI6
aI6
aI6
aI6
aI6
aI6
aI6
aI6
aI6
aI6
aI6
aI6
aI6
aI6
aI6
aI6
aI6
aI6
aI6
aI6
aI6
aI6
aI6
aI6
aI6
aI6
aI6
aI6
aI6
aI6
aI6
aI6
aI6
aI6
aI6
aI6
aI6
aI6
aI6
aI6
aI6
aI6
aI6
aI6
aI6
aI6
aI6
aI6
aI6
aI6
aI13
aI13
aI13
aI13
aI13
aI13
aI13
aI13
aI13
aI13
aI13
aI13
aI13
aI13
aI13
aI13
aI13
aI13
aI13
aI13
aI13
aI13
aI13
aI13
aI13
aI13
aI13
aI13
aI13
aI13
aI13
aI13
aI13
aI13
aI13
aI13
aI13
aI13
aI13
aI13
aI13
aI13
aI13
aI13
aI13
aI13
aI13
aI13
aI13
aI13
aI13
aI13
aI13
aI13
aI13
aI13
aI13
aI13
aI13
aI13
aI13
aI13
aI13
aI13
aI13
aI13
aI13
aI13
aI13
aI13
aI13
aI13
aI13
aI13
aI13
aI13
aI13
aI13
aI13
aI13
aI13
aI13
aI13
aI13
aI13
aI13
aI13
aI13
aI13
aI13
aI13
aI13
aI13
aI13
aI13
aI13
aI13
aI13
aI13
aI13
aI13
aI13
aI13
aI13
aI13
aI13
aI13
aI13
aI13
aI13
aI13
aI13
aI13
aI13
aI13
aI13
aI13
aI13
aI13
aI13
aI13
aI13
aI13
aI13
aI13
aI13
aI13
aI13
aI13
aI13
aI13
aI13
aI13
aI13
aI13
aI13
aI13
aI13
aI13
aI13
aI13
aI13
aI13
aI13
aI13
aI13
aI13
aI13
aI13
aI13
aI13
aI13
aI13
aI13
aI13
aI13
aI13
aI13
aI13
aI13
aI13
aI13
aI13
aI13
aI13
aI13
aI13
aI13
aI13
aI13
aI13
aI13
aI13
aI13
aI13
aI13
aI13
aI13
aI13
aI13
aI13
aI13
aI13
aI13
aI13
aI13
aI13
aI13
aI13
aI13
aI55
aI55
aI55
aI55
aI55
aI55
aI55
aI55
aI55
aI55
aI55
aI55
aI55
aI55
aI55
aI55
aI55
aI55
aI55
aI55
aI55
aI55
aI55
aI55
aI55
aI55
aI55
aI55
aI55
aI55
aI55
aI55
aI55
aI55
aI55
aI55
aI55
aI55
aI55
aI55
aI55
aI55
aI55
aI55
aI55
aI55
aI55
aI55
aI55
aI55
aI55
aI55
aI55
aI55
aI55
aI55
aI55
aI55
aI55
aI55
aI55
aI55
aI55
aI55
aI55
aI55
aI55
aI55
aI55
aI55
aI55
aI55
aI55
aI55
aI55
aI55
aI55
aI55
aI55
aI55
aI55
aI55
aI55
aI55
aI55
aI55
aI55
aI55
aI55
aI55
aI55
aI55
aI55
aI55
aI55
aI55
aI55
aI55
aI55
aI55
aI55
aI55
aI55
aI55
aI55
aI55
aI55
aI55
aI55
aI55
aI55
aI55
aI55
aI55
aI55
aI55
aI55
aI55
aI55
aI55
aI55
aI55
aI55
aI55
aI55
aI55
aI55
aI55
aI55
aI55
aI55
aI55
aI55
aI55
aI55
aI55
aI55
aI55
aI55
aI55
aI55
aI55
aI55
aI55
aI55
aI55
aI55
aI55
aI55
aI55
aI55
aI55
aI55
aI55
aI55
aI55
aI55
aI55
aI55
aI55
aI55
aI55
aI55
aI55
aI55
aI55
aI55
aI67
aI67
aI67
aI67
aI67
aI67
aI67
aI67
aI67
aI67
aI67
aI67
aI67
aI67
aI67
aI67
aI67
aI67
aI67
aI67
aI67
aI67
aI67
aI67
aI67
aI67
aI67
aI67
aI67
aI67
aI67
aI67
aI67
aI67
aI67
aI67
aI67
aI67
aI67
aI67
aI67
aI67
aI67
aI67
aI67
aI67
aI67
aI67
aI67
aI67
aI67
aI67
aI67
aI67
aI67
aI67
aI67
aI67
aI67
aI67
aI67
aI67
aI67
aI67
aI67
aI67
aI67
aI67
aI67
aI67
aI67
aI67
aI67
aI67
aI67
aI67
aI67
aI67
aI67
aI67
aI67
aI67
aI67
aI67
aI67
aI67
aI67
aI67
aI67
aI67
aI67
aI67
aI67
aI67
aI67
aI67
aI67
aI67
aI67
aI67
aI67
aI67
aI67
aI67
aI67
aI67
aI67
aI67
aI67
aI67
aI67
aI67
aI67
aI67
aI67
aI67
aI67
aI67
aI67
aI67
aI67
aI67
aI67
aI67
aI67
aI67
aI67
aI67
aI67
aI67
aI67
aI67
aI67
aI67
aI67
aI67
aI67
aI67
aI67
aI67
aI67
aI67
aI67
aI67
aI67
aI67
aI67
aI67
aI67
aI67
aI67
aI67
aI67
aI67
aI67
aI67
aI67
aI67
aI67
aI67
aI67
aI67
aI67
aI67
aI67
aI67
aI67
aI67
aI67
aI67
aI67
aI67
aI67
aI67
aI67
aI67
aI67
aI67
aI67
aI67
aI67
aI67
aI67
aI67
aI67
aI67
aI67
aI67
aI67
aI67
aI67
aI67
aI67
aI67
aI67
aI67
aI67
aI67
aI67
aI67
aI67
aI67
aI67
aI67
aI67
aI67
aI67
aI67
aI67
aI67
aI67
aI67
aI67
aI67
aI67
aI67
aI67
aI67
aI67
aI67
aI67
aI67
aI67
aI67
aI67
aI67
aI67
aI67
aI67
aI67
aI67
aI67
aI67
aI67
aI67
aI67
aI67
aI67
aI67
aI67
aI67
aI67
aI67
aI67
aI67
aI67
aI67
aI67
aI67
aI67
aI67
aI67
aI67
aI67
aI67
aI67
aI67
aI67
aI67
aI67
aI67
aI67
aI67
aI67
aI67
aI67
aI67
aI67
aI67
aI67
aI67
aI67
aI67
aI67
aI67
aI67
aI67
aI67
aI67
aI67
aI67
aI67
aI67
a.